target datalayout = "e-m:e-p270:32:32-p271:32:32-p272:64:64-i64:64-i128:128-f80:128-n8:16:32:64-S128"
target triple = "x86_64-pc-linux-gnu"

%struct.envelope = type { i32, ptr, ptr, ptr, ptr, i64, ptr, i32, %struct.tMPI_Atomic, i32, ptr, ptr, i32, ptr, ptr, ptr, ptr }
%struct.tMPI_Atomic = type { i32, [60 x i8] }
%struct.tmpi_req_ = type { i32, ptr, ptr, ptr, i32, i32, i64, i32, ptr, ptr }

; Function Attrs: mustprogress nounwind uwtable
define void @_Z13tMPI_Req_initP9tmpi_req_P8envelope(ptr noundef %0, ptr noundef %1) #3 {
  %3 = alloca ptr, align 8
  %4 = alloca ptr, align 8
  store ptr %0, ptr %3, align 8, !tbaa !51
  store ptr %1, ptr %4, align 8, !tbaa !53
  %5 = load ptr, ptr %4, align 8, !tbaa !53
  %6 = load ptr, ptr %3, align 8, !tbaa !51
  %7 = getelementptr inbounds nuw %struct.tmpi_req_, ptr %6, i32 0, i32 1
  store ptr %5, ptr %7, align 8, !tbaa !54
  %8 = load ptr, ptr %3, align 8, !tbaa !51
  %9 = getelementptr inbounds nuw %struct.tmpi_req_, ptr %8, i32 0, i32 0
  store i32 0, ptr %9, align 8, !tbaa !55
  %10 = load ptr, ptr %3, align 8, !tbaa !51
  %11 = load ptr, ptr %3, align 8, !tbaa !51
  %12 = getelementptr inbounds nuw %struct.tmpi_req_, ptr %11, i32 0, i32 8
  store ptr %10, ptr %12, align 8, !tbaa !49
  %13 = load ptr, ptr %3, align 8, !tbaa !51
  %14 = load ptr, ptr %3, align 8, !tbaa !51
  %15 = getelementptr inbounds nuw %struct.tmpi_req_, ptr %14, i32 0, i32 9
  store ptr %13, ptr %15, align 8, !tbaa !47
  %16 = load ptr, ptr %4, align 8, !tbaa !53
  %17 = getelementptr inbounds nuw %struct.envelope, ptr %16, i32 0, i32 2
  %18 = load ptr, ptr %17, align 8, !tbaa !56
  %19 = load ptr, ptr %3, align 8, !tbaa !51
  %20 = getelementptr inbounds nuw %struct.tmpi_req_, ptr %19, i32 0, i32 2
  store ptr %18, ptr %20, align 8, !tbaa !57
  %21 = load ptr, ptr %4, align 8, !tbaa !53
  %22 = getelementptr inbounds nuw %struct.envelope, ptr %21, i32 0, i32 1
  %23 = load ptr, ptr %22, align 8, !tbaa !58
  %24 = load ptr, ptr %3, align 8, !tbaa !51
  %25 = getelementptr inbounds nuw %struct.tmpi_req_, ptr %24, i32 0, i32 3
  store ptr %23, ptr %25, align 8, !tbaa !59
  %26 = load ptr, ptr %3, align 8, !tbaa !51
  %27 = getelementptr inbounds nuw %struct.tmpi_req_, ptr %26, i32 0, i32 4
  store i32 -1, ptr %27, align 8, !tbaa !60
  %28 = load ptr, ptr %3, align 8, !tbaa !51
  %29 = getelementptr inbounds nuw %struct.tmpi_req_, ptr %28, i32 0, i32 5
  store i32 0, ptr %29, align 4, !tbaa !61
  %30 = load ptr, ptr %3, align 8, !tbaa !51
  %31 = getelementptr inbounds nuw %struct.tmpi_req_, ptr %30, i32 0, i32 6
  store i64 0, ptr %31, align 8, !tbaa !62
  %32 = load ptr, ptr %3, align 8, !tbaa !51
  %33 = getelementptr inbounds nuw %struct.tmpi_req_, ptr %32, i32 0, i32 7
  store i32 0, ptr %33, align 8, !tbaa !63
  ret void
}