; Function Attrs: mustprogress nofree norecurse nosync nounwind willreturn memory(argmem: readwrite) uwtable
define void @_Z13tMPI_Req_initP9tmpi_req_P8envelope(ptr noundef initializes((0, 4), (8, 16)) %0, ptr noundef %1) local_unnamed_addr #5 {
  %3 = getelementptr inbounds nuw i8, ptr %0, i64 8
  store ptr %1, ptr %3, align 8, !tbaa !45
  store i32 0, ptr %0, align 8, !tbaa !46
  %4 = getelementptr inbounds nuw i8, ptr %0, i64 56
  store ptr %0, ptr %4, align 8, !tbaa !42
  %5 = getelementptr inbounds nuw i8, ptr %0, i64 64
  store ptr %0, ptr %5, align 8, !tbaa !40
  %6 = getelementptr inbounds nuw i8, ptr %1, i64 16
  %7 = load ptr, ptr %6, align 8, !tbaa !47
  %8 = getelementptr inbounds nuw i8, ptr %0, i64 16
  store ptr %7, ptr %8, align 8, !tbaa !48
  %9 = getelementptr inbounds nuw i8, ptr %1, i64 8
  %10 = load ptr, ptr %9, align 8, !tbaa !49
  %11 = getelementptr inbounds nuw i8, ptr %0, i64 24
  store ptr %10, ptr %11, align 8, !tbaa !50
  %12 = getelementptr inbounds nuw i8, ptr %0, i64 32
  store i32 -1, ptr %12, align 8, !tbaa !51
  %13 = getelementptr inbounds nuw i8, ptr %0, i64 36
  tail call void @llvm.memset.p0.i64(ptr noundef nonnull align 4 dereferenceable(16) %13, i8 0, i64 16, i1 false)
  ret void
}